; Function Attrs: nounwind uwtable
define ptr @l_Lake_Toml_repeatFn_loop___at_Lake_Toml_escapeSeqFn___spec__1(ptr noundef %0, ptr noundef %1, ptr noundef %2) local_unnamed_addr #1 {
  br label %lean_dec.exit28

lean_dec.exit28:                                  ; preds = %lean_inc.exit, %3
  %.025 = phi ptr [ %2, %3 ], [ %19, %lean_inc.exit ]
  %.022 = phi ptr [ %1, %3 ], [ %.1.i38, %lean_inc.exit ]
  %4 = ptrtoint ptr %.022 to i64
  %5 = and i64 %4, 1
  %.not = icmp eq i64 %5, 0
  br i1 %.not, label %lean_nat_eq.exit.thread, label %lean_nat_eq.exit, !prof !16

lean_nat_eq.exit:                                 ; preds = %lean_dec.exit28
  %.not47 = icmp eq ptr %.022, inttoptr (i64 1 to ptr)
  br i1 %.not47, label %.loopexit, label %7

lean_nat_eq.exit.thread:                          ; preds = %lean_dec.exit28
  %6 = tail call zeroext i1 @lean_nat_big_eq(ptr noundef %.022, ptr noundef nonnull inttoptr (i64 1 to ptr)) #4
  br i1 %6, label %.thread39, label %.thread

7:                                                ; preds = %lean_nat_eq.exit
  %8 = icmp ult ptr %.022, inttoptr (i64 2 to ptr)
  br i1 %8, label %lean_dec.exit29, label %9

9:                                                ; preds = %7
  %10 = add i64 %4, -2
  %11 = inttoptr i64 %10 to ptr
  br label %lean_dec.exit29

.thread:                                          ; preds = %lean_nat_eq.exit.thread
  %12 = tail call ptr @lean_nat_big_sub(ptr noundef %.022, ptr noundef nonnull inttoptr (i64 3 to ptr)) #4
  %13 = load i32, ptr %.022, align 4, !tbaa !4
  %14 = icmp sgt i32 %13, 1
  br i1 %14, label %15, label %17, !prof !9

15:                                               ; preds = %.thread
  %16 = add nsw i32 %13, -1
  store i32 %16, ptr %.022, align 4, !tbaa !4
  br label %lean_dec.exit29

17:                                               ; preds = %.thread
  %.not.i = icmp eq i32 %13, 0
  br i1 %.not.i, label %lean_dec.exit29, label %18

18:                                               ; preds = %17
  tail call void @lean_dec_ref_cold(ptr noundef nonnull %.022) #4
  br label %lean_dec.exit29

lean_dec.exit29:                                  ; preds = %9, %7, %18, %17, %15
  %.1.i38 = phi ptr [ %12, %15 ], [ %12, %17 ], [ %12, %18 ], [ inttoptr (i64 1 to ptr), %7 ], [ %11, %9 ]
  %19 = tail call ptr @l_Lean_Parser_hexDigitFn(ptr noundef %0, ptr noundef %.025) #4
  %20 = getelementptr inbounds nuw i8, ptr %19, i64 40
  %21 = load ptr, ptr %20, align 8, !tbaa !10
  %22 = ptrtoint ptr %21 to i64
  %23 = and i64 %22, 1
  %.not48 = icmp eq i64 %23, 0
  br i1 %.not48, label %24, label %lean_inc.exit

24:                                               ; preds = %lean_dec.exit29
  %.val.i = load i32, ptr %21, align 4, !tbaa !4
  %25 = icmp sgt i32 %.val.i, 0
  br i1 %25, label %26, label %28, !prof !9

26:                                               ; preds = %24
  %27 = add nuw i32 %.val.i, 1
  store i32 %27, ptr %21, align 4, !tbaa !4
  br label %lean_inc.exit

28:                                               ; preds = %24
  %.not.i35 = icmp eq i32 %.val.i, 0
  br i1 %.not.i35, label %lean_inc.exit, label %29

29:                                               ; preds = %28
  tail call void @lean_inc_ref_cold(ptr noundef nonnull %21) #4
  br label %lean_inc.exit

lean_inc.exit:                                    ; preds = %29, %28, %26, %lean_dec.exit29
  %30 = tail call zeroext i8 @l_Option_beqOption____x40_Init_Data_Option_Basic___hyg_160____at_Lean_Parser_ParserState_hasError___spec__1(ptr noundef %21, ptr noundef nonnull inttoptr (i64 1 to ptr)) #4
  %31 = icmp eq i8 %30, 0
  br i1 %31, label %32, label %lean_dec.exit28

32:                                               ; preds = %lean_inc.exit
  %33 = ptrtoint ptr %.1.i38 to i64
  %34 = and i64 %33, 1
  %.not49 = icmp eq i64 %34, 0
  br i1 %.not49, label %35, label %.loopexit

35:                                               ; preds = %32
  %36 = load i32, ptr %.1.i38, align 4, !tbaa !4
  %37 = icmp sgt i32 %36, 1
  br i1 %37, label %38, label %40, !prof !9

38:                                               ; preds = %35
  %39 = add nsw i32 %36, -1
  store i32 %39, ptr %.1.i38, align 4, !tbaa !4
  br label %.loopexit

40:                                               ; preds = %35
  %.not.i30 = icmp eq i32 %36, 0
  br i1 %.not.i30, label %.loopexit, label %41

41:                                               ; preds = %40
  tail call void @lean_dec_ref_cold(ptr noundef nonnull %.1.i38) #4
  br label %.loopexit

.thread39:                                        ; preds = %lean_nat_eq.exit.thread
  %42 = load i32, ptr %.022, align 4, !tbaa !4
  %43 = icmp sgt i32 %42, 1
  br i1 %43, label %44, label %46, !prof !9

44:                                               ; preds = %.thread39
  %45 = add nsw i32 %42, -1
  store i32 %45, ptr %.022, align 4, !tbaa !4
  br label %.loopexit

46:                                               ; preds = %.thread39
  %.not.i32 = icmp eq i32 %42, 0
  br i1 %.not.i32, label %.loopexit, label %47

47:                                               ; preds = %46
  tail call void @lean_dec_ref_cold(ptr noundef nonnull %.022) #4
  br label %.loopexit

.loopexit:                                        ; preds = %lean_nat_eq.exit, %41, %40, %38, %32, %47, %46, %44
  %.2.ph = phi ptr [ %.025, %44 ], [ %.025, %46 ], [ %.025, %47 ], [ %19, %32 ], [ %19, %38 ], [ %19, %40 ], [ %19, %41 ], [ %.025, %lean_nat_eq.exit ]
  ret ptr %.2.ph
}